target datalayout = "e-m:e-p270:32:32-p271:32:32-p272:64:64-i64:64-i128:128-f80:128-n8:16:32:64-S128"
target triple = "x86_64-pc-linux-gnu"

%struct.RelFileLocator = type { i32, i32, i32 }
%struct.RelationData = type { %struct.RelFileLocator, ptr, i32, i32, i8, i8, i8, i8, i8, i32, i32, i32, i32, ptr, ptr, i32, %struct.LockInfoData, ptr, ptr, ptr, ptr, ptr, i8, ptr, ptr, ptr, ptr, ptr, ptr, i32, ptr, i8, ptr, ptr, i32, i8, i32, ptr, i8, ptr, ptr, ptr, ptr, ptr, ptr, ptr, i32, ptr, ptr, ptr, ptr, ptr, ptr, ptr, ptr, ptr, ptr, ptr, ptr, ptr, ptr, ptr, ptr, ptr, ptr, ptr, i32, i8, ptr }
%struct.LockInfoData = type { %struct.LockRelId }
%struct.LockRelId = type { i32, i32 }
%struct.FormData_pg_class = type { i32, %struct.nameData, i32, i32, i32, i32, i32, i32, i32, i32, float, i32, i32, i8, i8, i8, i8, i16, i16, i8, i8, i8, i8, i8, i8, i8, i8, i32, i32, i32 }
%struct.nameData = type { [64 x i8] }
%struct.PageHeaderData = type { %struct.PageXLogRecPtr, i16, i16, i16, i16, i16, i16, i32, [0 x %struct.ItemIdData] }
%struct.PageXLogRecPtr = type { i32, i32 }
%struct.ItemIdData = type { i32 }
%struct.GinPageOpaqueData = type { i32, i16, i16 }
%struct.IndexTupleData = type { %struct.ItemPointerData, i16 }
%struct.ItemPointerData = type { %struct.BlockIdData, i16 }
%struct.BlockIdData = type { i16, i16 }
%union.PGAlignedBlock = type { double, [8184 x i8] }
%struct.ginxlogInsertListPage = type { i32, i32 }

@wal_level = external global i32, align 4
@CritSectionCount = external global i32, align 4
@.str = private unnamed_addr constant [41 x i8] c"failed to add item to index page in \22%s\22\00", align 1
@.str.1 = private unnamed_addr constant [10 x i8] c"ginfast.c\00", align 1
@LocalBufferBlockPointers = external global ptr, align 8
@BufferBlocks = external global ptr, align 8
@__func__.writeListPage = private unnamed_addr constant [14 x i8] c"writeListPage\00", align 1

; Function Attrs: inlinehint nounwind uwtable
define internal ptr @BufferGetBlock(i32 noundef %0) #4 {
  %2 = alloca ptr, align 8
  %3 = alloca i32, align 4
  store i32 %0, ptr %3, align 4
  %4 = load i32, ptr %3, align 4
  %5 = icmp slt i32 %4, 0
  br i1 %5, label %6, label %14

6:                                                ; preds = %1
  %7 = load ptr, ptr @LocalBufferBlockPointers, align 8
  %8 = load i32, ptr %3, align 4
  %9 = sub i32 0, %8
  %10 = sub i32 %9, 1
  %11 = sext i32 %10 to i64
  %12 = getelementptr inbounds ptr, ptr %7, i64 %11
  %13 = load ptr, ptr %12, align 8
  store ptr %13, ptr %2, align 8
  br label %21

14:                                               ; preds = %1
  %15 = load ptr, ptr @BufferBlocks, align 8
  %16 = load i32, ptr %3, align 4
  %17 = sub i32 %16, 1
  %18 = sext i32 %17 to i64
  %19 = mul i64 %18, 8192
  %20 = getelementptr inbounds nuw i8, ptr %15, i64 %19
  store ptr %20, ptr %2, align 8
  br label %21

21:                                               ; preds = %14, %6
  %22 = load ptr, ptr %2, align 8
  ret ptr %22
}

; Function Attrs: inlinehint nounwind uwtable
define internal void @PageSetLSN(ptr noundef %0, i64 noundef %1) #4 {
  %3 = alloca ptr, align 8
  %4 = alloca i64, align 8
  store ptr %0, ptr %3, align 8
  store i64 %1, ptr %4, align 8
  %5 = load i64, ptr %4, align 8
  %6 = lshr i64 %5, 32
  %7 = trunc i64 %6 to i32
  %8 = load ptr, ptr %3, align 8
  %9 = getelementptr inbounds nuw %struct.PageHeaderData, ptr %8, i32 0, i32 0
  %10 = getelementptr inbounds nuw %struct.PageXLogRecPtr, ptr %9, i32 0, i32 0
  store i32 %7, ptr %10, align 4
  %11 = load i64, ptr %4, align 8
  %12 = trunc i64 %11 to i32
  %13 = load ptr, ptr %3, align 8
  %14 = getelementptr inbounds nuw %struct.PageHeaderData, ptr %13, i32 0, i32 0
  %15 = getelementptr inbounds nuw %struct.PageXLogRecPtr, ptr %14, i32 0, i32 1
  store i32 %12, ptr %15, align 4
  ret void
}

; Function Attrs: inlinehint nounwind uwtable
define internal void @PageValidateSpecialPointer(ptr noundef %0) #4 {
  %2 = alloca ptr, align 8
  store ptr %0, ptr %2, align 8
  ret void
}

; Function Attrs: inlinehint nounwind uwtable
define internal i64 @IndexTupleSize(ptr noundef %0) #4 {
  %2 = alloca ptr, align 8
  store ptr %0, ptr %2, align 8
  %3 = load ptr, ptr %2, align 8
  %4 = getelementptr inbounds nuw %struct.IndexTupleData, ptr %3, i32 0, i32 1
  %5 = load i16, ptr %4, align 2
  %6 = zext i16 %5 to i32
  %7 = and i32 %6, 8191
  %8 = sext i32 %7 to i64
  ret i64 %8
}

; Function Attrs: inlinehint nounwind uwtable
define internal ptr @BufferGetPage(i32 noundef %0) #4 {
  %2 = alloca i32, align 4
  store i32 %0, ptr %2, align 4
  %3 = load i32, ptr %2, align 4
  %4 = call ptr @BufferGetBlock(i32 noundef %3)
  ret ptr %4
}

; Function Attrs: nounwind uwtable
define internal i32 @writeListPage(ptr noundef %0, i32 noundef %1, ptr noundef %2, i32 noundef %3, i32 noundef %4) #0 {
  %6 = alloca ptr, align 8
  %7 = alloca i32, align 4
  %8 = alloca ptr, align 8
  %9 = alloca i32, align 4
  %10 = alloca i32, align 4
  %11 = alloca ptr, align 8
  %12 = alloca i32, align 4
  %13 = alloca i32, align 4
  %14 = alloca i32, align 4
  %15 = alloca i16, align 2
  %16 = alloca i16, align 2
  %17 = alloca %union.PGAlignedBlock, align 8
  %18 = alloca ptr, align 8
  %19 = alloca i32, align 4
  %20 = alloca %struct.ginxlogInsertListPage, align 4
  %21 = alloca i64, align 8
  store ptr %0, ptr %6, align 8
  store i32 %1, ptr %7, align 4
  store ptr %2, ptr %8, align 8
  store i32 %3, ptr %9, align 4
  store i32 %4, ptr %10, align 4
  call void @llvm.lifetime.start.p0(i64 8, ptr %11) #8
  %22 = load i32, ptr %7, align 4
  %23 = call ptr @BufferGetPage(i32 noundef %22)
  store ptr %23, ptr %11, align 8
  call void @llvm.lifetime.start.p0(i64 4, ptr %12) #8
  call void @llvm.lifetime.start.p0(i64 4, ptr %13) #8
  call void @llvm.lifetime.start.p0(i64 4, ptr %14) #8
  store i32 0, ptr %14, align 4
  call void @llvm.lifetime.start.p0(i64 2, ptr %15) #8
  call void @llvm.lifetime.start.p0(i64 2, ptr %16) #8
  call void @llvm.lifetime.start.p0(i64 8192, ptr %17) #8
  call void @llvm.lifetime.start.p0(i64 8, ptr %18) #8
  %24 = load volatile i32, ptr @CritSectionCount, align 4
  %25 = add i32 %24, 1
  store volatile i32 %25, ptr @CritSectionCount, align 4
  %26 = load i32, ptr %7, align 4
  call void @GinInitBuffer(i32 noundef %26, i32 noundef 16)
  store i16 1, ptr %16, align 2
  %27 = getelementptr inbounds [8192 x i8], ptr %17, i64 0, i64 0
  store ptr %27, ptr %18, align 8
  store i32 0, ptr %12, align 4
  br label %28

28:                                               ; preds = %88, %5
  %29 = load i32, ptr %12, align 4
  %30 = load i32, ptr %9, align 4
  %31 = icmp slt i32 %29, %30
  br i1 %31, label %32, label %91

32:                                               ; preds = %28
  call void @llvm.lifetime.start.p0(i64 4, ptr %19) #8
  %33 = load ptr, ptr %8, align 8
  %34 = load i32, ptr %12, align 4
  %35 = sext i32 %34 to i64
  %36 = getelementptr inbounds ptr, ptr %33, i64 %35
  %37 = load ptr, ptr %36, align 8
  %38 = call i64 @IndexTupleSize(ptr noundef %37)
  %39 = trunc i64 %38 to i32
  store i32 %39, ptr %19, align 4
  %40 = load ptr, ptr %18, align 8
  %41 = load ptr, ptr %8, align 8
  %42 = load i32, ptr %12, align 4
  %43 = sext i32 %42 to i64
  %44 = getelementptr inbounds ptr, ptr %41, i64 %43
  %45 = load ptr, ptr %44, align 8
  %46 = load i32, ptr %19, align 4
  %47 = sext i32 %46 to i64
  call void @llvm.memcpy.p0.p0.i64(ptr align 1 %40, ptr align 2 %45, i64 %47, i1 false)
  %48 = load i32, ptr %19, align 4
  %49 = load ptr, ptr %18, align 8
  %50 = sext i32 %48 to i64
  %51 = getelementptr inbounds i8, ptr %49, i64 %50
  store ptr %51, ptr %18, align 8
  %52 = load i32, ptr %19, align 4
  %53 = load i32, ptr %14, align 4
  %54 = add i32 %53, %52
  store i32 %54, ptr %14, align 4
  %55 = load ptr, ptr %11, align 8
  %56 = load ptr, ptr %8, align 8
  %57 = load i32, ptr %12, align 4
  %58 = sext i32 %57 to i64
  %59 = getelementptr inbounds ptr, ptr %56, i64 %58
  %60 = load ptr, ptr %59, align 8
  %61 = load i32, ptr %19, align 4
  %62 = sext i32 %61 to i64
  %63 = load i16, ptr %16, align 2
  %64 = call zeroext i16 @PageAddItemExtended(ptr noundef %55, ptr noundef %60, i64 noundef %62, i16 noundef zeroext %63, i32 noundef 0)
  store i16 %64, ptr %15, align 2
  %65 = load i16, ptr %15, align 2
  %66 = zext i16 %65 to i32
  %67 = icmp eq i32 %66, 0
  br i1 %67, label %68, label %85

68:                                               ; preds = %32
  br label %69

69:                                               ; preds = %68
  br i1 true, label %70, label %72

70:                                               ; preds = %69
  %71 = call zeroext i1 @errstart_cold(i32 noundef 21, ptr noundef null) #9
  br i1 %71, label %74, label %82

72:                                               ; preds = %69
  %73 = call zeroext i1 @errstart(i32 noundef 21, ptr noundef null)
  br i1 %73, label %74, label %82

74:                                               ; preds = %72, %70
  %75 = load ptr, ptr %6, align 8
  %76 = getelementptr inbounds nuw %struct.RelationData, ptr %75, i32 0, i32 13
  %77 = load ptr, ptr %76, align 8
  %78 = getelementptr inbounds nuw %struct.FormData_pg_class, ptr %77, i32 0, i32 1
  %79 = getelementptr inbounds nuw %struct.nameData, ptr %78, i32 0, i32 0
  %80 = getelementptr inbounds [64 x i8], ptr %79, i64 0, i64 0
  %81 = call i32 (ptr, ...) @errmsg_internal(ptr noundef @.str, ptr noundef %80)
  call void @errfinish(ptr noundef @.str.1, i32 noundef 90, ptr noundef @__func__.writeListPage)
  br label %82

82:                                               ; preds = %74, %72, %70
  unreachable

83:                                               ; No predecessors!
  br label %84

84:                                               ; preds = %83
  br label %85

85:                                               ; preds = %84, %32
  %86 = load i16, ptr %16, align 2
  %87 = add i16 %86, 1
  store i16 %87, ptr %16, align 2
  call void @llvm.lifetime.end.p0(i64 4, ptr %19) #8
  br label %88

88:                                               ; preds = %85
  %89 = load i32, ptr %12, align 4
  %90 = add i32 %89, 1
  store i32 %90, ptr %12, align 4
  br label %28, !llvm.loop !20

91:                                               ; preds = %28
  %92 = load i32, ptr %10, align 4
  %93 = load ptr, ptr %11, align 8
  call void @PageValidateSpecialPointer(ptr noundef %93)
  %94 = load ptr, ptr %11, align 8
  %95 = load ptr, ptr %11, align 8
  %96 = getelementptr inbounds nuw %struct.PageHeaderData, ptr %95, i32 0, i32 5
  %97 = load i16, ptr %96, align 4
  %98 = zext i16 %97 to i32
  %99 = sext i32 %98 to i64
  %100 = getelementptr inbounds i8, ptr %94, i64 %99
  %101 = getelementptr inbounds nuw %struct.GinPageOpaqueData, ptr %100, i32 0, i32 0
  store i32 %92, ptr %101, align 4
  %102 = load i32, ptr %10, align 4
  %103 = icmp eq i32 %102, -1
  br i1 %103, label %104, label %127

104:                                              ; preds = %91
  %105 = load ptr, ptr %11, align 8
  call void @PageValidateSpecialPointer(ptr noundef %105)
  %106 = load ptr, ptr %11, align 8
  %107 = load ptr, ptr %11, align 8
  %108 = getelementptr inbounds nuw %struct.PageHeaderData, ptr %107, i32 0, i32 5
  %109 = load i16, ptr %108, align 4
  %110 = zext i16 %109 to i32
  %111 = sext i32 %110 to i64
  %112 = getelementptr inbounds i8, ptr %106, i64 %111
  %113 = getelementptr inbounds nuw %struct.GinPageOpaqueData, ptr %112, i32 0, i32 2
  %114 = load i16, ptr %113, align 2
  %115 = zext i16 %114 to i32
  %116 = or i32 %115, 32
  %117 = trunc i32 %116 to i16
  store i16 %117, ptr %113, align 2
  %118 = load ptr, ptr %11, align 8
  call void @PageValidateSpecialPointer(ptr noundef %118)
  %119 = load ptr, ptr %11, align 8
  %120 = load ptr, ptr %11, align 8
  %121 = getelementptr inbounds nuw %struct.PageHeaderData, ptr %120, i32 0, i32 5
  %122 = load i16, ptr %121, align 4
  %123 = zext i16 %122 to i32
  %124 = sext i32 %123 to i64
  %125 = getelementptr inbounds i8, ptr %119, i64 %124
  %126 = getelementptr inbounds nuw %struct.GinPageOpaqueData, ptr %125, i32 0, i32 1
  store i16 1, ptr %126, align 4
  br label %137

127:                                              ; preds = %91
  %128 = load ptr, ptr %11, align 8
  call void @PageValidateSpecialPointer(ptr noundef %128)
  %129 = load ptr, ptr %11, align 8
  %130 = load ptr, ptr %11, align 8
  %131 = getelementptr inbounds nuw %struct.PageHeaderData, ptr %130, i32 0, i32 5
  %132 = load i16, ptr %131, align 4
  %133 = zext i16 %132 to i32
  %134 = sext i32 %133 to i64
  %135 = getelementptr inbounds i8, ptr %129, i64 %134
  %136 = getelementptr inbounds nuw %struct.GinPageOpaqueData, ptr %135, i32 0, i32 1
  store i16 0, ptr %136, align 4
  br label %137

137:                                              ; preds = %127, %104
  %138 = load i32, ptr %7, align 4
  call void @MarkBufferDirty(i32 noundef %138)
  %139 = load ptr, ptr %6, align 8
  %140 = getelementptr inbounds nuw %struct.RelationData, ptr %139, i32 0, i32 13
  %141 = load ptr, ptr %140, align 8
  %142 = getelementptr inbounds nuw %struct.FormData_pg_class, ptr %141, i32 0, i32 15
  %143 = load i8, ptr %142, align 2
  %144 = sext i8 %143 to i32
  %145 = icmp eq i32 %144, 112
  br i1 %145, label %146, label %170

146:                                              ; preds = %137
  %147 = load i32, ptr @wal_level, align 4
  %148 = icmp sge i32 %147, 1
  br i1 %148, label %159, label %149

149:                                              ; preds = %146
  %150 = load ptr, ptr %6, align 8
  %151 = getelementptr inbounds nuw %struct.RelationData, ptr %150, i32 0, i32 9
  %152 = load i32, ptr %151, align 8
  %153 = icmp eq i32 %152, 0
  br i1 %153, label %154, label %170

154:                                              ; preds = %149
  %155 = load ptr, ptr %6, align 8
  %156 = getelementptr inbounds nuw %struct.RelationData, ptr %155, i32 0, i32 11
  %157 = load i32, ptr %156, align 8
  %158 = icmp eq i32 %157, 0
  br i1 %158, label %159, label %170

159:                                              ; preds = %154, %146
  call void @llvm.lifetime.start.p0(i64 8, ptr %20) #8
  call void @llvm.lifetime.start.p0(i64 8, ptr %21) #8
  %160 = load i32, ptr %10, align 4
  %161 = getelementptr inbounds nuw %struct.ginxlogInsertListPage, ptr %20, i32 0, i32 0
  store i32 %160, ptr %161, align 4
  %162 = load i32, ptr %9, align 4
  %163 = getelementptr inbounds nuw %struct.ginxlogInsertListPage, ptr %20, i32 0, i32 1
  store i32 %162, ptr %163, align 4
  call void @XLogBeginInsert()
  call void @XLogRegisterData(ptr noundef %20, i32 noundef 8)
  %164 = load i32, ptr %7, align 4
  call void @XLogRegisterBuffer(i8 noundef zeroext 0, i32 noundef %164, i8 noundef zeroext 6)
  %165 = getelementptr inbounds [8192 x i8], ptr %17, i64 0, i64 0
  %166 = load i32, ptr %14, align 4
  call void @XLogRegisterBufData(i8 noundef zeroext 0, ptr noundef %165, i32 noundef %166)
  %167 = call i64 @XLogInsert(i8 noundef zeroext 13, i8 noundef zeroext 112)
  store i64 %167, ptr %21, align 8
  %168 = load ptr, ptr %11, align 8
  %169 = load i64, ptr %21, align 8
  call void @PageSetLSN(ptr noundef %168, i64 noundef %169)
  call void @llvm.lifetime.end.p0(i64 8, ptr %21) #8
  call void @llvm.lifetime.end.p0(i64 8, ptr %20) #8
  br label %170

170:                                              ; preds = %159, %154, %149, %137
  %171 = load ptr, ptr %11, align 8
  %172 = call i64 @PageGetExactFreeSpace(ptr noundef %171)
  %173 = trunc i64 %172 to i32
  store i32 %173, ptr %13, align 4
  %174 = load i32, ptr %7, align 4
  call void @UnlockReleaseBuffer(i32 noundef %174)
  br label %175

175:                                              ; preds = %170
  %176 = load volatile i32, ptr @CritSectionCount, align 4
  %177 = add i32 %176, -1
  store volatile i32 %177, ptr @CritSectionCount, align 4
  br label %178

178:                                              ; preds = %175
  br label %179

179:                                              ; preds = %178
  %180 = load i32, ptr %13, align 4
  call void @llvm.lifetime.end.p0(i64 8, ptr %18) #8
  call void @llvm.lifetime.end.p0(i64 8192, ptr %17) #8
  call void @llvm.lifetime.end.p0(i64 2, ptr %16) #8
  call void @llvm.lifetime.end.p0(i64 2, ptr %15) #8
  call void @llvm.lifetime.end.p0(i64 4, ptr %14) #8
  call void @llvm.lifetime.end.p0(i64 4, ptr %13) #8
  call void @llvm.lifetime.end.p0(i64 4, ptr %12) #8
  call void @llvm.lifetime.end.p0(i64 8, ptr %11) #8
  ret i32 %180
}