; Function Attrs: nounwind uwtable
define internal fastcc i32 @writeListPage(ptr noundef readonly captures(none) %0, i32 noundef %1, ptr noundef readonly captures(none) %2, i32 noundef %3, i32 noundef %4) unnamed_addr #0 {
  %6 = alloca %union.PGAlignedBlock, align 8
  %7 = alloca %struct.ginxlogInsertListPage, align 4
  %8 = icmp slt i32 %1, 0
  br i1 %8, label %9, label %15

9:                                                ; preds = %5
  %10 = load ptr, ptr @LocalBufferBlockPointers, align 8
  %11 = xor i32 %1, -1
  %12 = zext nneg i32 %11 to i64
  %13 = getelementptr inbounds nuw ptr, ptr %10, i64 %12
  %14 = load ptr, ptr %13, align 8
  br label %BufferGetPage.exit

15:                                               ; preds = %5
  %16 = load ptr, ptr @BufferBlocks, align 8
  %17 = add nsw i32 %1, -1
  %18 = sext i32 %17 to i64
  %19 = shl nsw i64 %18, 13
  %20 = getelementptr inbounds nuw i8, ptr %16, i64 %19
  br label %BufferGetPage.exit

BufferGetPage.exit:                               ; preds = %9, %15
  %.0.i.i = phi ptr [ %14, %9 ], [ %20, %15 ]
  call void @llvm.lifetime.start.p0(i64 8192, ptr nonnull %6) #9
  %21 = load volatile i32, ptr @CritSectionCount, align 4
  %22 = add i32 %21, 1
  store volatile i32 %22, ptr @CritSectionCount, align 4
  tail call void @GinInitBuffer(i32 noundef %1, i32 noundef 16) #9
  %23 = icmp sgt i32 %3, 0
  br i1 %23, label %.lr.ph.preheader, label %._crit_edge

.lr.ph.preheader:                                 ; preds = %BufferGetPage.exit
  %wide.trip.count = zext nneg i32 %3 to i64
  br label %.lr.ph

.lr.ph:                                           ; preds = %.lr.ph.preheader, %37
  %indvars.iv = phi i64 [ 0, %.lr.ph.preheader ], [ %indvars.iv.next, %37 ]
  %.04956 = phi i32 [ 0, %.lr.ph.preheader ], [ %39, %37 ]
  %.05055 = phi ptr [ %6, %.lr.ph.preheader ], [ %40, %37 ]
  %.05154 = phi i16 [ 1, %.lr.ph.preheader ], [ %41, %37 ]
  %24 = getelementptr inbounds nuw ptr, ptr %2, i64 %indvars.iv
  %25 = load ptr, ptr %24, align 8
  %26 = getelementptr i8, ptr %25, i64 6
  %.val = load i16, ptr %26, align 2
  %27 = and i16 %.val, 8191
  %28 = zext nneg i16 %27 to i64
  call void @llvm.memcpy.p0.p0.i64(ptr align 1 %.05055, ptr align 2 %25, i64 %28, i1 false)
  %29 = tail call zeroext i16 @PageAddItemExtended(ptr noundef %.0.i.i, ptr noundef %25, i64 noundef %28, i16 noundef zeroext %.05154, i32 noundef 0) #9
  %30 = icmp eq i16 %29, 0
  br i1 %30, label %31, label %37

31:                                               ; preds = %.lr.ph
  %32 = tail call zeroext i1 @errstart_cold(i32 noundef 21, ptr noundef null) #10
  tail call void @llvm.assume(i1 %32)
  %33 = getelementptr inbounds nuw i8, ptr %0, i64 56
  %34 = load ptr, ptr %33, align 8
  %35 = getelementptr inbounds nuw i8, ptr %34, i64 4
  %36 = tail call i32 (ptr, ...) @errmsg_internal(ptr noundef nonnull @.str, ptr noundef nonnull %35) #9
  tail call void @errfinish(ptr noundef nonnull @.str.1, i32 noundef 90, ptr noundef nonnull @__func__.writeListPage) #9
  unreachable

37:                                               ; preds = %.lr.ph
  %38 = zext nneg i16 %27 to i32
  %39 = add i32 %.04956, %38
  %40 = getelementptr inbounds nuw i8, ptr %.05055, i64 %28
  %41 = add i16 %.05154, 1
  %indvars.iv.next = add nuw nsw i64 %indvars.iv, 1
  %exitcond.not = icmp eq i64 %indvars.iv.next, %wide.trip.count
  br i1 %exitcond.not, label %._crit_edge, label %.lr.ph, !llvm.loop !20

._crit_edge:                                      ; preds = %37, %BufferGetPage.exit
  %.049.lcssa = phi i32 [ 0, %BufferGetPage.exit ], [ %39, %37 ]
  %42 = getelementptr inbounds nuw i8, ptr %.0.i.i, i64 16
  %43 = load i16, ptr %42, align 4
  %44 = zext i16 %43 to i64
  %45 = getelementptr inbounds nuw i8, ptr %.0.i.i, i64 %44
  store i32 %4, ptr %45, align 4
  %46 = icmp eq i32 %4, -1
  %47 = load i16, ptr %42, align 4
  %48 = zext i16 %47 to i64
  br i1 %46, label %49, label %56

49:                                               ; preds = %._crit_edge
  %50 = getelementptr inbounds nuw i8, ptr %.0.i.i, i64 %48
  %51 = getelementptr inbounds nuw i8, ptr %50, i64 6
  %52 = load i16, ptr %51, align 2
  %53 = or i16 %52, 32
  store i16 %53, ptr %51, align 2
  %54 = load i16, ptr %42, align 4
  %55 = zext i16 %54 to i64
  br label %56

56:                                               ; preds = %._crit_edge, %49
  %57 = phi i64 [ %55, %49 ], [ %48, %._crit_edge ]
  %.sink = phi i16 [ 1, %49 ], [ 0, %._crit_edge ]
  %58 = getelementptr inbounds nuw i8, ptr %.0.i.i, i64 %57
  %59 = getelementptr inbounds nuw i8, ptr %58, i64 4
  store i16 %.sink, ptr %59, align 4
  tail call void @MarkBufferDirty(i32 noundef %1) #9
  %60 = getelementptr inbounds nuw i8, ptr %0, i64 56
  %61 = load ptr, ptr %60, align 8
  %62 = getelementptr inbounds nuw i8, ptr %61, i64 114
  %63 = load i8, ptr %62, align 2
  %64 = icmp eq i8 %63, 112
  br i1 %64, label %65, label %83

65:                                               ; preds = %56
  %66 = load i32, ptr @wal_level, align 4
  %67 = icmp sgt i32 %66, 0
  br i1 %67, label %76, label %68

68:                                               ; preds = %65
  %69 = getelementptr inbounds nuw i8, ptr %0, i64 40
  %70 = load i32, ptr %69, align 8
  %71 = icmp eq i32 %70, 0
  br i1 %71, label %72, label %83

72:                                               ; preds = %68
  %73 = getelementptr inbounds nuw i8, ptr %0, i64 48
  %74 = load i32, ptr %73, align 8
  %75 = icmp eq i32 %74, 0
  br i1 %75, label %76, label %83

76:                                               ; preds = %72, %65
  call void @llvm.lifetime.start.p0(i64 8, ptr nonnull %7) #9
  store i32 %4, ptr %7, align 4
  %77 = getelementptr inbounds nuw i8, ptr %7, i64 4
  store i32 %3, ptr %77, align 4
  tail call void @XLogBeginInsert() #9
  call void @XLogRegisterData(ptr noundef nonnull %7, i32 noundef 8) #9
  call void @XLogRegisterBuffer(i8 noundef zeroext 0, i32 noundef %1, i8 noundef zeroext 6) #9
  call void @XLogRegisterBufData(i8 noundef zeroext 0, ptr noundef nonnull %6, i32 noundef %.049.lcssa) #9
  %78 = call i64 @XLogInsert(i8 noundef zeroext 13, i8 noundef zeroext 112) #9
  %79 = lshr i64 %78, 32
  %80 = trunc nuw i64 %79 to i32
  store i32 %80, ptr %.0.i.i, align 4
  %81 = trunc i64 %78 to i32
  %82 = getelementptr inbounds nuw i8, ptr %.0.i.i, i64 4
  store i32 %81, ptr %82, align 4
  call void @llvm.lifetime.end.p0(i64 8, ptr nonnull %7) #9
  br label %83

83:                                               ; preds = %76, %72, %68, %56
  %84 = call i64 @PageGetExactFreeSpace(ptr noundef nonnull %.0.i.i) #9
  %85 = trunc i64 %84 to i32
  call void @UnlockReleaseBuffer(i32 noundef %1) #9
  %86 = load volatile i32, ptr @CritSectionCount, align 4
  %87 = add i32 %86, -1
  store volatile i32 %87, ptr @CritSectionCount, align 4
  call void @llvm.lifetime.end.p0(i64 8192, ptr nonnull %6) #9
  ret i32 %85
}